; ModuleID = '20/1119.c'
source_filename = "20/1119.c"
target datalayout = "e-m:e-p270:32:32-p271:32:32-p272:64:64-i64:64-f80:128-n8:16:32:64-S128"
target triple = "x86_64-pc-linux-gnu"

@.str = private unnamed_addr constant [5 x i8] c"%s%s\00", align 1
@.str.1 = private unnamed_addr constant [3 x i8] c"%c\00", align 1
@.str.2 = private unnamed_addr constant [2 x i8] c"\0A\00", align 1

; Function Attrs: noinline nounwind uwtable
define dso_local i32 @main() #0 {
  %1 = alloca i32, align 4
  %2 = alloca [10 x i8], align 1
  %3 = alloca [10 x i8], align 1
  %4 = alloca i8, align 1
  %5 = alloca i32, align 4
  %6 = alloca i32, align 4
  %7 = alloca i32, align 4
  %8 = alloca i32, align 4
  store i32 0, i32* %1, align 4
  store i32 0, i32* %7, align 4
  br label %9

9:                                                ; preds = %93, %0
  %10 = getelementptr inbounds [10 x i8], [10 x i8]* %2, i64 0, i64 0
  %11 = getelementptr inbounds [10 x i8], [10 x i8]* %3, i64 0, i64 0
  %12 = call i32 (i8*, ...) @__isoc99_scanf(i8* getelementptr inbounds ([5 x i8], [5 x i8]* @.str, i64 0, i64 0), i8* %10, i8* %11)
  %13 = icmp ne i32 %12, -1
  br i1 %13, label %14, label %95

14:                                               ; preds = %9
  %15 = getelementptr inbounds [10 x i8], [10 x i8]* %2, i64 0, i64 0
  %16 = call i64 @strlen(i8* %15) #3
  %17 = trunc i64 %16 to i32
  store i32 %17, i32* %6, align 4
  %18 = getelementptr inbounds [10 x i8], [10 x i8]* %3, i64 0, i64 0
  %19 = call i64 @strlen(i8* %18) #3
  %20 = trunc i64 %19 to i32
  store i32 %20, i32* %8, align 4
  %21 = getelementptr inbounds [10 x i8], [10 x i8]* %2, i64 0, i64 0
  %22 = load i8, i8* %21, align 1
  store i8 %22, i8* %4, align 1
  store i32 1, i32* %5, align 4
  br label %23

23:                                               ; preds = %43, %14
  %24 = load i32, i32* %5, align 4
  %25 = load i32, i32* %6, align 4
  %26 = icmp slt i32 %24, %25
  br i1 %26, label %27, label %46

27:                                               ; preds = %23
  %28 = load i32, i32* %5, align 4
  %29 = sext i32 %28 to i64
  %30 = getelementptr inbounds [10 x i8], [10 x i8]* %2, i64 0, i64 %29
  %31 = load i8, i8* %30, align 1
  %32 = sext i8 %31 to i32
  %33 = load i8, i8* %4, align 1
  %34 = sext i8 %33 to i32
  %35 = icmp sgt i32 %32, %34
  br i1 %35, label %36, label %42

36:                                               ; preds = %27
  %37 = load i32, i32* %5, align 4
  %38 = sext i32 %37 to i64
  %39 = getelementptr inbounds [10 x i8], [10 x i8]* %2, i64 0, i64 %38
  %40 = load i8, i8* %39, align 1
  store i8 %40, i8* %4, align 1
  %41 = load i32, i32* %5, align 4
  store i32 %41, i32* %7, align 4
  br label %42

42:                                               ; preds = %36, %27
  br label %43

43:                                               ; preds = %42
  %44 = load i32, i32* %5, align 4
  %45 = add nsw i32 %44, 1
  store i32 %45, i32* %5, align 4
  br label %23

46:                                               ; preds = %23
  store i32 0, i32* %5, align 4
  br label %47

47:                                               ; preds = %58, %46
  %48 = load i32, i32* %5, align 4
  %49 = load i32, i32* %7, align 4
  %50 = icmp sle i32 %48, %49
  br i1 %50, label %51, label %61

51:                                               ; preds = %47
  %52 = load i32, i32* %5, align 4
  %53 = sext i32 %52 to i64
  %54 = getelementptr inbounds [10 x i8], [10 x i8]* %2, i64 0, i64 %53
  %55 = load i8, i8* %54, align 1
  %56 = sext i8 %55 to i32
  %57 = call i32 (i8*, ...) @printf(i8* getelementptr inbounds ([3 x i8], [3 x i8]* @.str.1, i64 0, i64 0), i32 %56)
  br label %58

58:                                               ; preds = %51
  %59 = load i32, i32* %5, align 4
  %60 = add nsw i32 %59, 1
  store i32 %60, i32* %5, align 4
  br label %47

61:                                               ; preds = %47
  store i32 0, i32* %5, align 4
  br label %62

62:                                               ; preds = %73, %61
  %63 = load i32, i32* %5, align 4
  %64 = load i32, i32* %8, align 4
  %65 = icmp slt i32 %63, %64
  br i1 %65, label %66, label %76

66:                                               ; preds = %62
  %67 = load i32, i32* %5, align 4
  %68 = sext i32 %67 to i64
  %69 = getelementptr inbounds [10 x i8], [10 x i8]* %3, i64 0, i64 %68
  %70 = load i8, i8* %69, align 1
  %71 = sext i8 %70 to i32
  %72 = call i32 (i8*, ...) @printf(i8* getelementptr inbounds ([3 x i8], [3 x i8]* @.str.1, i64 0, i64 0), i32 %71)
  br label %73

73:                                               ; preds = %66
  %74 = load i32, i32* %5, align 4
  %75 = add nsw i32 %74, 1
  store i32 %75, i32* %5, align 4
  br label %62

76:                                               ; preds = %62
  %77 = load i32, i32* %7, align 4
  %78 = add nsw i32 %77, 1
  store i32 %78, i32* %5, align 4
  br label %79

79:                                               ; preds = %90, %76
  %80 = load i32, i32* %5, align 4
  %81 = load i32, i32* %6, align 4
  %82 = icmp slt i32 %80, %81
  br i1 %82, label %83, label %93

83:                                               ; preds = %79
  %84 = load i32, i32* %5, align 4
  %85 = sext i32 %84 to i64
  %86 = getelementptr inbounds [10 x i8], [10 x i8]* %2, i64 0, i64 %85
  %87 = load i8, i8* %86, align 1
  %88 = sext i8 %87 to i32
  %89 = call i32 (i8*, ...) @printf(i8* getelementptr inbounds ([3 x i8], [3 x i8]* @.str.1, i64 0, i64 0), i32 %88)
  br label %90

90:                                               ; preds = %83
  %91 = load i32, i32* %5, align 4
  %92 = add nsw i32 %91, 1
  store i32 %92, i32* %5, align 4
  br label %79

93:                                               ; preds = %79
  %94 = call i32 (i8*, ...) @printf(i8* getelementptr inbounds ([2 x i8], [2 x i8]* @.str.2, i64 0, i64 0))
  br label %9

95:                                               ; preds = %9
  ret i32 0
}

declare dso_local i32 @__isoc99_scanf(i8*, ...) #1

; Function Attrs: nounwind readonly
declare dso_local i64 @strlen(i8*) #2

declare dso_local i32 @printf(i8*, ...) #1


!llvm.module.flags = !{!0}
!llvm.ident = !{!1}

!0 = !{i32 1, !"wchar_size", i32 4}
!1 = !{!"clang version 10.0.0-4ubuntu1 "}
